target datalayout = "e-m:e-p270:32:32-p271:32:32-p272:64:64-i64:64-i128:128-f80:128-n8:16:32:64-S128"
target triple = "x86_64-pc-linux-gnu"

%struct.DTS2PTSFrame = type { ptr, i32, i32, i32 }
%struct.DTS2PTSNode = type { i64, i64, i32, i32 }

; Function Attrs: nounwind uwtable
define internal i32 @cmp_find(ptr noundef %0, ptr noundef %1) #0 {
  %3 = alloca ptr, align 8
  %4 = alloca ptr, align 8
  %5 = alloca ptr, align 8
  %6 = alloca ptr, align 8
  %7 = alloca i32, align 4
  store ptr %0, ptr %3, align 8, !tbaa !158
  store ptr %1, ptr %4, align 8, !tbaa !158
  call void @llvm.lifetime.start.p0(i64 8, ptr %5) #7
  %8 = load ptr, ptr %3, align 8, !tbaa !158
  store ptr %8, ptr %5, align 8, !tbaa !163
  call void @llvm.lifetime.start.p0(i64 8, ptr %6) #7
  %9 = load ptr, ptr %4, align 8, !tbaa !158
  store ptr %9, ptr %6, align 8, !tbaa !54
  call void @llvm.lifetime.start.p0(i64 4, ptr %7) #7
  %10 = load ptr, ptr %5, align 8, !tbaa !163
  %11 = getelementptr inbounds nuw %struct.DTS2PTSFrame, ptr %10, i32 0, i32 1
  %12 = load i32, ptr %11, align 8, !tbaa !63
  %13 = load ptr, ptr %6, align 8, !tbaa !54
  %14 = getelementptr inbounds nuw %struct.DTS2PTSNode, ptr %13, i32 0, i32 2
  %15 = load i32, ptr %14, align 8, !tbaa !61
  %16 = icmp sgt i32 %12, %15
  %17 = zext i1 %16 to i32
  %18 = load ptr, ptr %5, align 8, !tbaa !163
  %19 = getelementptr inbounds nuw %struct.DTS2PTSFrame, ptr %18, i32 0, i32 1
  %20 = load i32, ptr %19, align 8, !tbaa !63
  %21 = load ptr, ptr %6, align 8, !tbaa !54
  %22 = getelementptr inbounds nuw %struct.DTS2PTSNode, ptr %21, i32 0, i32 2
  %23 = load i32, ptr %22, align 8, !tbaa !61
  %24 = icmp slt i32 %20, %23
  %25 = zext i1 %24 to i32
  %26 = sub nsw i32 %17, %25
  store i32 %26, ptr %7, align 4, !tbaa !20
  %27 = load i32, ptr %7, align 4, !tbaa !20
  %28 = icmp ne i32 %27, 0
  br i1 %28, label %37, label %29

29:                                               ; preds = %2
  %30 = load ptr, ptr %5, align 8, !tbaa !163
  %31 = getelementptr inbounds nuw %struct.DTS2PTSFrame, ptr %30, i32 0, i32 3
  %32 = load i32, ptr %31, align 8, !tbaa !68
  %33 = load ptr, ptr %6, align 8, !tbaa !54
  %34 = getelementptr inbounds nuw %struct.DTS2PTSNode, ptr %33, i32 0, i32 3
  %35 = load i32, ptr %34, align 4, !tbaa !73
  %36 = sub nsw i32 %32, %35
  store i32 %36, ptr %7, align 4, !tbaa !20
  br label %37

37:                                               ; preds = %29, %2
  %38 = load i32, ptr %7, align 4, !tbaa !20
  call void @llvm.lifetime.end.p0(i64 4, ptr %7) #7
  call void @llvm.lifetime.end.p0(i64 8, ptr %6) #7
  call void @llvm.lifetime.end.p0(i64 8, ptr %5) #7
  ret i32 %38
}