; Function Attrs: mustprogress nofree norecurse nosync nounwind willreturn memory(argmem: read) uwtable
define internal i32 @cmp_find(ptr noundef readonly captures(none) %0, ptr noundef readonly captures(none) %1) #7 {
  %3 = getelementptr inbounds nuw i8, ptr %0, i64 8
  %4 = load i32, ptr %3, align 8, !tbaa !49
  %5 = getelementptr inbounds nuw i8, ptr %1, i64 16
  %6 = load i32, ptr %5, align 8, !tbaa !47
  %7 = tail call i32 @llvm.scmp.i32.i32(i32 %4, i32 %6)
  %.not = icmp eq i32 %4, %6
  br i1 %.not, label %8, label %14

8:                                                ; preds = %2
  %9 = getelementptr inbounds nuw i8, ptr %0, i64 16
  %10 = load i32, ptr %9, align 8, !tbaa !54
  %11 = getelementptr inbounds nuw i8, ptr %1, i64 20
  %12 = load i32, ptr %11, align 4, !tbaa !60
  %13 = sub nsw i32 %10, %12
  br label %14

14:                                               ; preds = %8, %2
  %.0 = phi i32 [ %7, %2 ], [ %13, %8 ]
  ret i32 %.0
}